; Function Attrs: mustprogress uwtable
define void @_ZN5ImGui16ShowFontSelectorEPKc(ptr noundef %0) local_unnamed_addr #4 {
  %2 = alloca %struct.ImVec2, align 4
  %3 = tail call noundef nonnull align 8 dereferenceable(3016) ptr @_ZN5ImGui5GetIOEv()
  %4 = tail call noundef ptr @_ZN5ImGui7GetFontEv()
  %5 = getelementptr inbounds nuw i8, ptr %4, i64 72
  %6 = load ptr, ptr %5, align 8, !tbaa !390
  %.not.i = icmp eq ptr %6, null
  %7 = getelementptr inbounds nuw i8, ptr %6, i64 74
  %spec.select.i = select i1 %.not.i, ptr @.str.1990, ptr %7
  %8 = tail call noundef zeroext i1 @_ZN5ImGui10BeginComboEPKcS1_i(ptr noundef %0, ptr noundef nonnull %spec.select.i, i32 noundef 0)
  br i1 %8, label %9, label %32

9:                                                ; preds = %1
  %10 = getelementptr inbounds nuw i8, ptr %3, i64 48
  %11 = load ptr, ptr %10, align 8, !tbaa !188
  %12 = getelementptr inbounds nuw i8, ptr %11, i64 80
  %13 = getelementptr inbounds nuw i8, ptr %11, i64 88
  %14 = load ptr, ptr %13, align 8, !tbaa !396
  %15 = load i32, ptr %12, align 8, !tbaa !397
  %16 = sext i32 %15 to i64
  %17 = getelementptr inbounds ptr, ptr %14, i64 %16
  %.not19 = icmp eq i32 %15, 0
  br i1 %.not19, label %._crit_edge, label %.lr.ph

.lr.ph:                                           ; preds = %9
  %18 = getelementptr inbounds nuw i8, ptr %2, i64 4
  %19 = getelementptr inbounds nuw i8, ptr %3, i64 64
  br label %20

._crit_edge:                                      ; preds = %30, %9
  call void @_ZN5ImGui8EndComboEv()
  br label %32

20:                                               ; preds = %.lr.ph, %30
  %.020 = phi ptr [ %14, %.lr.ph ], [ %31, %30 ]
  %21 = load ptr, ptr %.020, align 8, !tbaa !398
  call void @_ZN5ImGui6PushIDEPKv(ptr noundef %21)
  %22 = getelementptr inbounds nuw i8, ptr %21, i64 72
  %23 = load ptr, ptr %22, align 8, !tbaa !390
  %.not.i17 = icmp eq ptr %23, null
  %24 = getelementptr inbounds nuw i8, ptr %23, i64 74
  %spec.select.i18 = select i1 %.not.i17, ptr @.str.1990, ptr %24
  %25 = icmp eq ptr %21, %4
  call void @llvm.lifetime.start.p0(i64 8, ptr nonnull %2) #33
  store float 0.000000e+00, ptr %2, align 4, !tbaa !42
  store float 0.000000e+00, ptr %18, align 4, !tbaa !44
  %26 = call noundef zeroext i1 @_ZN5ImGui10SelectableEPKcbiRK6ImVec2(ptr noundef nonnull %spec.select.i18, i1 noundef zeroext %25, i32 noundef 0, ptr noundef nonnull align 4 dereferenceable(8) %2)
  call void @llvm.lifetime.end.p0(i64 8, ptr nonnull %2) #33
  br i1 %26, label %27, label %28

27:                                               ; preds = %20
  store ptr %21, ptr %19, align 8, !tbaa !399
  br label %28

28:                                               ; preds = %27, %20
  br i1 %25, label %29, label %30

29:                                               ; preds = %28
  call void @_ZN5ImGui19SetItemDefaultFocusEv()
  br label %30

30:                                               ; preds = %29, %28
  call void @_ZN5ImGui5PopIDEv()
  %31 = getelementptr inbounds nuw i8, ptr %.020, i64 8
  %.not = icmp eq ptr %31, %17
  br i1 %.not, label %._crit_edge, label %20

32:                                               ; preds = %._crit_edge, %1
  call void @_ZN5ImGui8SameLineEff(float noundef 0.000000e+00, float noundef -1.000000e+00)
  call void (ptr, ...) @_ZN5ImGui12TextDisabledEPKcz(ptr noundef nonnull @.str.304)
  %33 = call noundef zeroext i1 @_ZN5ImGui16BeginItemTooltipEv()
  br i1 %33, label %34, label %_ZL10HelpMarkerPKc.exit

34:                                               ; preds = %32
  %35 = call noundef float @_ZN5ImGui11GetFontSizeEv()
  %36 = fmul float %35, 3.500000e+01
  call void @_ZN5ImGui15PushTextWrapPosEf(float noundef %36)
  call void @_ZN5ImGui15TextUnformattedEPKcS1_(ptr noundef nonnull @.str.170, ptr noundef null)
  call void @_ZN5ImGui14PopTextWrapPosEv()
  call void @_ZN5ImGui10EndTooltipEv()
  br label %_ZL10HelpMarkerPKc.exit

_ZL10HelpMarkerPKc.exit:                          ; preds = %32, %34
  ret void
}